target datalayout = "e-m:e-p270:32:32-p271:32:32-p272:64:64-i64:64-i128:128-f80:128-n8:16:32:64-S128"
target triple = "x86_64-pc-linux-gnu"

%"struct.folly::detail::SingletonThreadLocalState::Tracking" = type { %"class.std::unordered_map", %"class.std::unordered_map.2" }
%"class.std::unordered_map" = type { %"class.std::_Hashtable" }
%"class.std::_Hashtable" = type { ptr, i64, %"struct.std::__detail::_Hash_node_base", i64, %"struct.std::__detail::_Prime_rehash_policy", ptr }
%"struct.std::__detail::_Hash_node_base" = type { ptr }
%"struct.std::__detail::_Prime_rehash_policy" = type { float, i64 }
%"class.std::unordered_map.2" = type { %"class.std::_Hashtable.3" }
%"class.std::_Hashtable.3" = type { ptr, i64, %"struct.std::__detail::_Hash_node_base", i64, %"struct.std::__detail::_Prime_rehash_policy", ptr }

; Function Attrs: mustprogress nounwind uwtable
define linkonce_odr void @_ZNSt15__new_allocatorINSt8__detail10_Hash_nodeISt4pairIKPN5folly6detail25SingletonThreadLocalState13LocalLifetimeESt13unordered_setIPNS5_10LocalCacheESt4hashISB_ESt8equal_toISB_ESaISB_EEELb0EEEEC2Ev(ptr noundef nonnull align 1 dereferenceable(1) %0) unnamed_addr #1 comdat align 2 {
  %2 = alloca ptr, align 8
  store ptr %0, ptr %2, align 8, !tbaa !73
  ret void
}

; Function Attrs: mustprogress nounwind uwtable
define linkonce_odr void @_ZNSt15__new_allocatorINSt8__detail10_Hash_nodeISt4pairIKPN5folly6detail25SingletonThreadLocalState10LocalCacheEmELb0EEEEC2Ev(ptr noundef nonnull align 1 dereferenceable(1) %0) unnamed_addr #1 comdat align 2 {
  %2 = alloca ptr, align 8
  store ptr %0, ptr %2, align 8, !tbaa !50
  ret void
}

; Function Attrs: mustprogress nounwind uwtable
define linkonce_odr void @_ZNSaINSt8__detail10_Hash_nodeISt4pairIKPN5folly6detail25SingletonThreadLocalState13LocalLifetimeESt13unordered_setIPNS4_10LocalCacheESt4hashISA_ESt8equal_toISA_ESaISA_EEELb0EEEEC2Ev(ptr noundef nonnull align 1 dereferenceable(1) %0) unnamed_addr #1 comdat align 2 {
  %2 = alloca ptr, align 8
  store ptr %0, ptr %2, align 8, !tbaa !71
  %3 = load ptr, ptr %2, align 8
  call void @_ZNSt15__new_allocatorINSt8__detail10_Hash_nodeISt4pairIKPN5folly6detail25SingletonThreadLocalState13LocalLifetimeESt13unordered_setIPNS5_10LocalCacheESt4hashISB_ESt8equal_toISB_ESaISB_EEELb0EEEEC2Ev(ptr noundef nonnull align 1 dereferenceable(1) %3) #15
  ret void
}

; Function Attrs: mustprogress nounwind uwtable
define linkonce_odr void @_ZNSt8__detail21_Hashtable_ebo_helperILi1ESt4hashIPN5folly6detail25SingletonThreadLocalState13LocalLifetimeEELb1EEC2Ev(ptr noundef nonnull align 1 dereferenceable(1) %0) unnamed_addr #1 comdat align 2 {
  %2 = alloca ptr, align 8
  store ptr %0, ptr %2, align 8, !tbaa !67
  ret void
}

; Function Attrs: mustprogress nounwind uwtable
define linkonce_odr void @_ZNSaINSt8__detail10_Hash_nodeISt4pairIKPN5folly6detail25SingletonThreadLocalState10LocalCacheEmELb0EEEEC2Ev(ptr noundef nonnull align 1 dereferenceable(1) %0) unnamed_addr #1 comdat align 2 {
  %2 = alloca ptr, align 8
  store ptr %0, ptr %2, align 8, !tbaa !48
  %3 = load ptr, ptr %2, align 8
  call void @_ZNSt15__new_allocatorINSt8__detail10_Hash_nodeISt4pairIKPN5folly6detail25SingletonThreadLocalState10LocalCacheEmELb0EEEEC2Ev(ptr noundef nonnull align 1 dereferenceable(1) %3) #15
  ret void
}

; Function Attrs: mustprogress nounwind uwtable
define linkonce_odr void @_ZNSt8__detail21_Hashtable_ebo_helperILi1ESt4hashIPN5folly6detail25SingletonThreadLocalState10LocalCacheEELb1EEC2Ev(ptr noundef nonnull align 1 dereferenceable(1) %0) unnamed_addr #1 comdat align 2 {
  %2 = alloca ptr, align 8
  store ptr %0, ptr %2, align 8, !tbaa !44
  ret void
}

; Function Attrs: mustprogress nounwind uwtable
define linkonce_odr void @_ZNSt8__detail21_Hashtable_ebo_helperILi0ESaINS_10_Hash_nodeISt4pairIKPN5folly6detail25SingletonThreadLocalState13LocalLifetimeESt13unordered_setIPNS5_10LocalCacheESt4hashISB_ESt8equal_toISB_ESaISB_EEELb0EEEELb1EEC2Ev(ptr noundef nonnull align 1 dereferenceable(1) %0) unnamed_addr #1 comdat align 2 {
  %2 = alloca ptr, align 8
  store ptr %0, ptr %2, align 8, !tbaa !69
  %3 = load ptr, ptr %2, align 8
  call void @_ZNSaINSt8__detail10_Hash_nodeISt4pairIKPN5folly6detail25SingletonThreadLocalState13LocalLifetimeESt13unordered_setIPNS4_10LocalCacheESt4hashISA_ESt8equal_toISA_ESaISA_EEELb0EEEEC2Ev(ptr noundef nonnull align 1 dereferenceable(1) %3) #15
  ret void
}

; Function Attrs: mustprogress nounwind uwtable
define linkonce_odr void @_ZNSt8__detail21_Hashtable_ebo_helperILi0ESt8equal_toIPN5folly6detail25SingletonThreadLocalState13LocalLifetimeEELb1EEC2Ev(ptr noundef nonnull align 1 dereferenceable(1) %0) unnamed_addr #1 comdat align 2 {
  %2 = alloca ptr, align 8
  store ptr %0, ptr %2, align 8, !tbaa !65
  ret void
}

; Function Attrs: mustprogress nounwind uwtable
define linkonce_odr void @_ZNSt8__detail15_Hash_code_baseIPN5folly6detail25SingletonThreadLocalState13LocalLifetimeESt4pairIKS5_St13unordered_setIPNS3_10LocalCacheESt4hashISA_ESt8equal_toISA_ESaISA_EEENS_10_Select1stESB_IS5_ENS_18_Mod_range_hashingENS_20_Default_ranged_hashELb0EEC2Ev(ptr noundef nonnull align 1 dereferenceable(1) %0) unnamed_addr #1 comdat align 2 {
  %2 = alloca ptr, align 8
  store ptr %0, ptr %2, align 8, !tbaa !63
  %3 = load ptr, ptr %2, align 8
  call void @_ZNSt8__detail21_Hashtable_ebo_helperILi1ESt4hashIPN5folly6detail25SingletonThreadLocalState13LocalLifetimeEELb1EEC2Ev(ptr noundef nonnull align 1 dereferenceable(1) %3) #15
  ret void
}

; Function Attrs: mustprogress nounwind uwtable
define linkonce_odr void @_ZNSt8__detail21_Hashtable_ebo_helperILi0ESaINS_10_Hash_nodeISt4pairIKPN5folly6detail25SingletonThreadLocalState10LocalCacheEmELb0EEEELb1EEC2Ev(ptr noundef nonnull align 1 dereferenceable(1) %0) unnamed_addr #1 comdat align 2 {
  %2 = alloca ptr, align 8
  store ptr %0, ptr %2, align 8, !tbaa !46
  %3 = load ptr, ptr %2, align 8
  call void @_ZNSaINSt8__detail10_Hash_nodeISt4pairIKPN5folly6detail25SingletonThreadLocalState10LocalCacheEmELb0EEEEC2Ev(ptr noundef nonnull align 1 dereferenceable(1) %3) #15
  ret void
}

; Function Attrs: mustprogress nounwind uwtable
define linkonce_odr void @_ZNSt8__detail21_Hashtable_ebo_helperILi0ESt8equal_toIPN5folly6detail25SingletonThreadLocalState10LocalCacheEELb1EEC2Ev(ptr noundef nonnull align 1 dereferenceable(1) %0) unnamed_addr #1 comdat align 2 {
  %2 = alloca ptr, align 8
  store ptr %0, ptr %2, align 8, !tbaa !42
  ret void
}

; Function Attrs: mustprogress nounwind uwtable
define linkonce_odr void @_ZNSt8__detail15_Hash_code_baseIPN5folly6detail25SingletonThreadLocalState10LocalCacheESt4pairIKS5_mENS_10_Select1stESt4hashIS5_ENS_18_Mod_range_hashingENS_20_Default_ranged_hashELb0EEC2Ev(ptr noundef nonnull align 1 dereferenceable(1) %0) unnamed_addr #1 comdat align 2 {
  %2 = alloca ptr, align 8
  store ptr %0, ptr %2, align 8, !tbaa !40
  %3 = load ptr, ptr %2, align 8
  call void @_ZNSt8__detail21_Hashtable_ebo_helperILi1ESt4hashIPN5folly6detail25SingletonThreadLocalState10LocalCacheEELb1EEC2Ev(ptr noundef nonnull align 1 dereferenceable(1) %3) #15
  ret void
}

; Function Attrs: mustprogress nounwind uwtable
define linkonce_odr void @_ZNSt8__detail16_Hashtable_allocISaINS_10_Hash_nodeISt4pairIKPN5folly6detail25SingletonThreadLocalState13LocalLifetimeESt13unordered_setIPNS5_10LocalCacheESt4hashISB_ESt8equal_toISB_ESaISB_EEELb0EEEEEC2Ev(ptr noundef nonnull align 1 dereferenceable(1) %0) unnamed_addr #1 comdat align 2 {
  %2 = alloca ptr, align 8
  store ptr %0, ptr %2, align 8, !tbaa !61
  %3 = load ptr, ptr %2, align 8
  call void @_ZNSt8__detail21_Hashtable_ebo_helperILi0ESaINS_10_Hash_nodeISt4pairIKPN5folly6detail25SingletonThreadLocalState13LocalLifetimeESt13unordered_setIPNS5_10LocalCacheESt4hashISB_ESt8equal_toISB_ESaISB_EEELb0EEEELb1EEC2Ev(ptr noundef nonnull align 1 dereferenceable(1) %3) #15
  ret void
}

; Function Attrs: mustprogress nounwind uwtable
define linkonce_odr void @_ZNSt8__detail15_Hashtable_baseIPN5folly6detail25SingletonThreadLocalState13LocalLifetimeESt4pairIKS5_St13unordered_setIPNS3_10LocalCacheESt4hashISA_ESt8equal_toISA_ESaISA_EEENS_10_Select1stESD_IS5_ESB_IS5_ENS_18_Mod_range_hashingENS_20_Default_ranged_hashENS_17_Hashtable_traitsILb0ELb0ELb1EEEEC2Ev(ptr noundef nonnull align 1 dereferenceable(1) %0) unnamed_addr #1 comdat align 2 {
  %2 = alloca ptr, align 8
  store ptr %0, ptr %2, align 8, !tbaa !59
  %3 = load ptr, ptr %2, align 8
  call void @_ZNSt8__detail15_Hash_code_baseIPN5folly6detail25SingletonThreadLocalState13LocalLifetimeESt4pairIKS5_St13unordered_setIPNS3_10LocalCacheESt4hashISA_ESt8equal_toISA_ESaISA_EEENS_10_Select1stESB_IS5_ENS_18_Mod_range_hashingENS_20_Default_ranged_hashELb0EEC2Ev(ptr noundef nonnull align 1 dereferenceable(1) %3) #15
  call void @_ZNSt8__detail21_Hashtable_ebo_helperILi0ESt8equal_toIPN5folly6detail25SingletonThreadLocalState13LocalLifetimeEELb1EEC2Ev(ptr noundef nonnull align 1 dereferenceable(1) %3) #15
  ret void
}

; Function Attrs: mustprogress nounwind uwtable
define linkonce_odr void @_ZNSt8__detail20_Prime_rehash_policyC2Ef(ptr noundef nonnull align 8 dereferenceable(16) %0, float noundef %1) unnamed_addr #1 comdat align 2 {
  %3 = alloca ptr, align 8
  %4 = alloca float, align 4
  store ptr %0, ptr %3, align 8, !tbaa !35
  store float %1, ptr %4, align 4, !tbaa !37
  %5 = load ptr, ptr %3, align 8
  %6 = getelementptr inbounds nuw %"struct.std::__detail::_Prime_rehash_policy", ptr %5, i32 0, i32 0
  %7 = load float, ptr %4, align 4, !tbaa !37
  store float %7, ptr %6, align 8, !tbaa !38
  %8 = getelementptr inbounds nuw %"struct.std::__detail::_Prime_rehash_policy", ptr %5, i32 0, i32 1
  store i64 0, ptr %8, align 8, !tbaa !39
  ret void
}

; Function Attrs: mustprogress nounwind uwtable
define linkonce_odr void @_ZNSt8__detail15_Hash_node_baseC2Ev(ptr noundef nonnull align 8 dereferenceable(8) %0) unnamed_addr #1 comdat align 2 {
  %2 = alloca ptr, align 8
  store ptr %0, ptr %2, align 8, !tbaa !33
  %3 = load ptr, ptr %2, align 8
  %4 = getelementptr inbounds nuw %"struct.std::__detail::_Hash_node_base", ptr %3, i32 0, i32 0
  store ptr null, ptr %4, align 8, !tbaa !34
  ret void
}

; Function Attrs: mustprogress nounwind uwtable
define linkonce_odr void @_ZNSt8__detail16_Hashtable_allocISaINS_10_Hash_nodeISt4pairIKPN5folly6detail25SingletonThreadLocalState10LocalCacheEmELb0EEEEEC2Ev(ptr noundef nonnull align 1 dereferenceable(1) %0) unnamed_addr #1 comdat align 2 {
  %2 = alloca ptr, align 8
  store ptr %0, ptr %2, align 8, !tbaa !31
  %3 = load ptr, ptr %2, align 8
  call void @_ZNSt8__detail21_Hashtable_ebo_helperILi0ESaINS_10_Hash_nodeISt4pairIKPN5folly6detail25SingletonThreadLocalState10LocalCacheEmELb0EEEELb1EEC2Ev(ptr noundef nonnull align 1 dereferenceable(1) %3) #15
  ret void
}

; Function Attrs: mustprogress nounwind uwtable
define linkonce_odr void @_ZNSt8__detail15_Hashtable_baseIPN5folly6detail25SingletonThreadLocalState10LocalCacheESt4pairIKS5_mENS_10_Select1stESt8equal_toIS5_ESt4hashIS5_ENS_18_Mod_range_hashingENS_20_Default_ranged_hashENS_17_Hashtable_traitsILb0ELb0ELb1EEEEC2Ev(ptr noundef nonnull align 1 dereferenceable(1) %0) unnamed_addr #1 comdat align 2 {
  %2 = alloca ptr, align 8
  store ptr %0, ptr %2, align 8, !tbaa !29
  %3 = load ptr, ptr %2, align 8
  call void @_ZNSt8__detail15_Hash_code_baseIPN5folly6detail25SingletonThreadLocalState10LocalCacheESt4pairIKS5_mENS_10_Select1stESt4hashIS5_ENS_18_Mod_range_hashingENS_20_Default_ranged_hashELb0EEC2Ev(ptr noundef nonnull align 1 dereferenceable(1) %3) #15
  call void @_ZNSt8__detail21_Hashtable_ebo_helperILi0ESt8equal_toIPN5folly6detail25SingletonThreadLocalState10LocalCacheEELb1EEC2Ev(ptr noundef nonnull align 1 dereferenceable(1) %3) #15
  ret void
}

; Function Attrs: mustprogress nounwind uwtable
define linkonce_odr void @_ZNSt10_HashtableIPN5folly6detail25SingletonThreadLocalState13LocalLifetimeESt4pairIKS4_St13unordered_setIPNS2_10LocalCacheESt4hashIS9_ESt8equal_toIS9_ESaIS9_EEESaISG_ENSt8__detail10_Select1stESC_IS4_ESA_IS4_ENSI_18_Mod_range_hashingENSI_20_Default_ranged_hashENSI_20_Prime_rehash_policyENSI_17_Hashtable_traitsILb0ELb0ELb1EEEEC2Ev(ptr noundef nonnull align 8 dereferenceable(56) %0) unnamed_addr #1 comdat align 2 {
  %2 = alloca ptr, align 8
  store ptr %0, ptr %2, align 8, !tbaa !52
  %3 = load ptr, ptr %2, align 8
  call void @_ZNSt8__detail15_Hashtable_baseIPN5folly6detail25SingletonThreadLocalState13LocalLifetimeESt4pairIKS5_St13unordered_setIPNS3_10LocalCacheESt4hashISA_ESt8equal_toISA_ESaISA_EEENS_10_Select1stESD_IS5_ESB_IS5_ENS_18_Mod_range_hashingENS_20_Default_ranged_hashENS_17_Hashtable_traitsILb0ELb0ELb1EEEEC2Ev(ptr noundef nonnull align 1 dereferenceable(1) %3) #15
  call void @_ZNSt8__detail16_Hashtable_allocISaINS_10_Hash_nodeISt4pairIKPN5folly6detail25SingletonThreadLocalState13LocalLifetimeESt13unordered_setIPNS5_10LocalCacheESt4hashISB_ESt8equal_toISB_ESaISB_EEELb0EEEEEC2Ev(ptr noundef nonnull align 1 dereferenceable(1) %3) #15
  %4 = getelementptr inbounds nuw %"class.std::_Hashtable.3", ptr %3, i32 0, i32 0
  %5 = getelementptr inbounds nuw %"class.std::_Hashtable.3", ptr %3, i32 0, i32 5
  store ptr %5, ptr %4, align 8, !tbaa !54
  %6 = getelementptr inbounds nuw %"class.std::_Hashtable.3", ptr %3, i32 0, i32 1
  store i64 1, ptr %6, align 8, !tbaa !56
  %7 = getelementptr inbounds nuw %"class.std::_Hashtable.3", ptr %3, i32 0, i32 2
  call void @_ZNSt8__detail15_Hash_node_baseC2Ev(ptr noundef nonnull align 8 dereferenceable(8) %7) #15
  %8 = getelementptr inbounds nuw %"class.std::_Hashtable.3", ptr %3, i32 0, i32 3
  store i64 0, ptr %8, align 8, !tbaa !57
  %9 = getelementptr inbounds nuw %"class.std::_Hashtable.3", ptr %3, i32 0, i32 4
  call void @_ZNSt8__detail20_Prime_rehash_policyC2Ef(ptr noundef nonnull align 8 dereferenceable(16) %9, float noundef 1.000000e+00) #15
  %10 = getelementptr inbounds nuw %"class.std::_Hashtable.3", ptr %3, i32 0, i32 5
  store ptr null, ptr %10, align 8, !tbaa !58
  ret void
}

; Function Attrs: mustprogress nounwind uwtable
define linkonce_odr void @_ZNSt10_HashtableIPN5folly6detail25SingletonThreadLocalState10LocalCacheESt4pairIKS4_mESaIS7_ENSt8__detail10_Select1stESt8equal_toIS4_ESt4hashIS4_ENS9_18_Mod_range_hashingENS9_20_Default_ranged_hashENS9_20_Prime_rehash_policyENS9_17_Hashtable_traitsILb0ELb0ELb1EEEEC2Ev(ptr noundef nonnull align 8 dereferenceable(56) %0) unnamed_addr #1 comdat align 2 {
  %2 = alloca ptr, align 8
  store ptr %0, ptr %2, align 8, !tbaa !16
  %3 = load ptr, ptr %2, align 8
  call void @_ZNSt8__detail15_Hashtable_baseIPN5folly6detail25SingletonThreadLocalState10LocalCacheESt4pairIKS5_mENS_10_Select1stESt8equal_toIS5_ESt4hashIS5_ENS_18_Mod_range_hashingENS_20_Default_ranged_hashENS_17_Hashtable_traitsILb0ELb0ELb1EEEEC2Ev(ptr noundef nonnull align 1 dereferenceable(1) %3) #15
  call void @_ZNSt8__detail16_Hashtable_allocISaINS_10_Hash_nodeISt4pairIKPN5folly6detail25SingletonThreadLocalState10LocalCacheEmELb0EEEEEC2Ev(ptr noundef nonnull align 1 dereferenceable(1) %3) #15
  %4 = getelementptr inbounds nuw %"class.std::_Hashtable", ptr %3, i32 0, i32 0
  %5 = getelementptr inbounds nuw %"class.std::_Hashtable", ptr %3, i32 0, i32 5
  store ptr %5, ptr %4, align 8, !tbaa !18
  %6 = getelementptr inbounds nuw %"class.std::_Hashtable", ptr %3, i32 0, i32 1
  store i64 1, ptr %6, align 8, !tbaa !26
  %7 = getelementptr inbounds nuw %"class.std::_Hashtable", ptr %3, i32 0, i32 2
  call void @_ZNSt8__detail15_Hash_node_baseC2Ev(ptr noundef nonnull align 8 dereferenceable(8) %7) #15
  %8 = getelementptr inbounds nuw %"class.std::_Hashtable", ptr %3, i32 0, i32 3
  store i64 0, ptr %8, align 8, !tbaa !27
  %9 = getelementptr inbounds nuw %"class.std::_Hashtable", ptr %3, i32 0, i32 4
  call void @_ZNSt8__detail20_Prime_rehash_policyC2Ef(ptr noundef nonnull align 8 dereferenceable(16) %9, float noundef 1.000000e+00) #15
  %10 = getelementptr inbounds nuw %"class.std::_Hashtable", ptr %3, i32 0, i32 5
  store ptr null, ptr %10, align 8, !tbaa !28
  ret void
}

; Function Attrs: mustprogress nounwind uwtable
define linkonce_odr void @_ZNSt13unordered_mapIPN5folly6detail25SingletonThreadLocalState13LocalLifetimeESt13unordered_setIPNS2_10LocalCacheESt4hashIS7_ESt8equal_toIS7_ESaIS7_EES8_IS4_ESA_IS4_ESaISt4pairIKS4_SD_EEEC2Ev(ptr noundef nonnull align 8 dereferenceable(56) %0) unnamed_addr #1 comdat align 2 {
  %2 = alloca ptr, align 8
  store ptr %0, ptr %2, align 8, !tbaa !14
  %3 = load ptr, ptr %2, align 8
  %4 = getelementptr inbounds nuw %"class.std::unordered_map.2", ptr %3, i32 0, i32 0
  call void @_ZNSt10_HashtableIPN5folly6detail25SingletonThreadLocalState13LocalLifetimeESt4pairIKS4_St13unordered_setIPNS2_10LocalCacheESt4hashIS9_ESt8equal_toIS9_ESaIS9_EEESaISG_ENSt8__detail10_Select1stESC_IS4_ESA_IS4_ENSI_18_Mod_range_hashingENSI_20_Default_ranged_hashENSI_20_Prime_rehash_policyENSI_17_Hashtable_traitsILb0ELb0ELb1EEEEC2Ev(ptr noundef nonnull align 8 dereferenceable(56) %4) #15
  ret void
}

; Function Attrs: mustprogress nounwind uwtable
define linkonce_odr void @_ZNSt13unordered_mapIPN5folly6detail25SingletonThreadLocalState10LocalCacheEmSt4hashIS4_ESt8equal_toIS4_ESaISt4pairIKS4_mEEEC2Ev(ptr noundef nonnull align 8 dereferenceable(56) %0) unnamed_addr #1 comdat align 2 {
  %2 = alloca ptr, align 8
  store ptr %0, ptr %2, align 8, !tbaa !12
  %3 = load ptr, ptr %2, align 8
  %4 = getelementptr inbounds nuw %"class.std::unordered_map", ptr %3, i32 0, i32 0
  call void @_ZNSt10_HashtableIPN5folly6detail25SingletonThreadLocalState10LocalCacheESt4pairIKS4_mESaIS7_ENSt8__detail10_Select1stESt8equal_toIS4_ESt4hashIS4_ENS9_18_Mod_range_hashingENS9_20_Default_ranged_hashENS9_20_Prime_rehash_policyENS9_17_Hashtable_traitsILb0ELb0ELb1EEEEC2Ev(ptr noundef nonnull align 8 dereferenceable(56) %4) #15
  ret void
}

; Function Attrs: mustprogress noinline nounwind uwtable
define void @_ZN5folly6detail25SingletonThreadLocalState8TrackingC2Ev(ptr noundef nonnull align 8 dereferenceable(112) %0) unnamed_addr #0 align 2 {
  %2 = alloca ptr, align 8
  store ptr %0, ptr %2, align 8, !tbaa !7
  %3 = load ptr, ptr %2, align 8
  %4 = getelementptr inbounds nuw %"struct.folly::detail::SingletonThreadLocalState::Tracking", ptr %3, i32 0, i32 0
  call void @_ZNSt13unordered_mapIPN5folly6detail25SingletonThreadLocalState10LocalCacheEmSt4hashIS4_ESt8equal_toIS4_ESaISt4pairIKS4_mEEEC2Ev(ptr noundef nonnull align 8 dereferenceable(56) %4) #15
  %5 = getelementptr inbounds nuw %"struct.folly::detail::SingletonThreadLocalState::Tracking", ptr %3, i32 0, i32 1
  call void @_ZNSt13unordered_mapIPN5folly6detail25SingletonThreadLocalState13LocalLifetimeESt13unordered_setIPNS2_10LocalCacheESt4hashIS7_ESt8equal_toIS7_ESaIS7_EES8_IS4_ESA_IS4_ESaISt4pairIKS4_SD_EEEC2Ev(ptr noundef nonnull align 8 dereferenceable(56) %5) #15
  ret void
}